target datalayout = "e-m:e-p270:32:32-p271:32:32-p272:64:64-i64:64-i128:128-f80:128-n8:16:32:64-S128"
target triple = "x86_64-pc-linux-gnu"

%struct.AVProbeData = type { ptr, ptr, i32, ptr }

; Function Attrs: alwaysinline nounwind willreturn memory(none) uwtable
define internal i32 @av_popcount_c(i32 noundef %0) #10 {
  %2 = alloca i32, align 4
  store i32 %0, ptr %2, align 4, !tbaa !28
  %3 = load i32, ptr %2, align 4, !tbaa !28
  %4 = lshr i32 %3, 1
  %5 = and i32 %4, 1431655765
  %6 = load i32, ptr %2, align 4, !tbaa !28
  %7 = sub i32 %6, %5
  store i32 %7, ptr %2, align 4, !tbaa !28
  %8 = load i32, ptr %2, align 4, !tbaa !28
  %9 = and i32 %8, 858993459
  %10 = load i32, ptr %2, align 4, !tbaa !28
  %11 = lshr i32 %10, 2
  %12 = and i32 %11, 858993459
  %13 = add i32 %9, %12
  store i32 %13, ptr %2, align 4, !tbaa !28
  %14 = load i32, ptr %2, align 4, !tbaa !28
  %15 = load i32, ptr %2, align 4, !tbaa !28
  %16 = lshr i32 %15, 4
  %17 = add i32 %14, %16
  %18 = and i32 %17, 252645135
  store i32 %18, ptr %2, align 4, !tbaa !28
  %19 = load i32, ptr %2, align 4, !tbaa !28
  %20 = lshr i32 %19, 8
  %21 = load i32, ptr %2, align 4, !tbaa !28
  %22 = add i32 %21, %20
  store i32 %22, ptr %2, align 4, !tbaa !28
  %23 = load i32, ptr %2, align 4, !tbaa !28
  %24 = load i32, ptr %2, align 4, !tbaa !28
  %25 = lshr i32 %24, 16
  %26 = add i32 %23, %25
  %27 = and i32 %26, 63
  ret i32 %27
}

; Function Attrs: nounwind uwtable
define internal i32 @pcx_probe(ptr noundef %0) #0 {
  %2 = alloca i32, align 4
  %3 = alloca ptr, align 8
  %4 = alloca ptr, align 8
  %5 = alloca i32, align 4
  store ptr %0, ptr %3, align 8, !tbaa !139
  call void @llvm.lifetime.start.p0(i64 8, ptr %4) #12
  %6 = load ptr, ptr %3, align 8, !tbaa !139
  %7 = getelementptr inbounds nuw %struct.AVProbeData, ptr %6, i32 0, i32 1
  %8 = load ptr, ptr %7, align 8, !tbaa !96
  store ptr %8, ptr %4, align 8, !tbaa !76
  %9 = load ptr, ptr %3, align 8, !tbaa !139
  %10 = getelementptr inbounds nuw %struct.AVProbeData, ptr %9, i32 0, i32 2
  %11 = load i32, ptr %10, align 8, !tbaa !97
  %12 = icmp slt i32 %11, 128
  br i1 %12, label %70, label %13

13:                                               ; preds = %1
  %14 = load ptr, ptr %4, align 8, !tbaa !76
  %15 = getelementptr inbounds i8, ptr %14, i64 0
  %16 = load i8, ptr %15, align 1, !tbaa !77
  %17 = zext i8 %16 to i32
  %18 = icmp ne i32 %17, 10
  br i1 %18, label %70, label %19

19:                                               ; preds = %13
  %20 = load ptr, ptr %4, align 8, !tbaa !76
  %21 = getelementptr inbounds i8, ptr %20, i64 1
  %22 = load i8, ptr %21, align 1, !tbaa !77
  %23 = zext i8 %22 to i32
  %24 = icmp sgt i32 %23, 5
  br i1 %24, label %70, label %25

25:                                               ; preds = %19
  %26 = load ptr, ptr %4, align 8, !tbaa !76
  %27 = getelementptr inbounds i8, ptr %26, i64 2
  %28 = load i8, ptr %27, align 1, !tbaa !77
  %29 = zext i8 %28 to i32
  %30 = icmp sgt i32 %29, 1
  br i1 %30, label %70, label %31

31:                                               ; preds = %25
  %32 = load ptr, ptr %4, align 8, !tbaa !76
  %33 = getelementptr inbounds i8, ptr %32, i64 3
  %34 = load i8, ptr %33, align 1, !tbaa !77
  %35 = zext i8 %34 to i32
  %36 = call i32 @av_popcount_c(i32 noundef %35) #15
  %37 = icmp ne i32 %36, 1
  br i1 %37, label %70, label %38

38:                                               ; preds = %31
  %39 = load ptr, ptr %4, align 8, !tbaa !76
  %40 = getelementptr inbounds i8, ptr %39, i64 3
  %41 = load i8, ptr %40, align 1, !tbaa !77
  %42 = zext i8 %41 to i32
  %43 = icmp sgt i32 %42, 8
  br i1 %43, label %70, label %44

44:                                               ; preds = %38
  %45 = load ptr, ptr %4, align 8, !tbaa !76
  %46 = getelementptr inbounds i8, ptr %45, i64 4
  %47 = load i16, ptr %46, align 1, !tbaa !77
  %48 = zext i16 %47 to i32
  %49 = load ptr, ptr %4, align 8, !tbaa !76
  %50 = getelementptr inbounds i8, ptr %49, i64 8
  %51 = load i16, ptr %50, align 1, !tbaa !77
  %52 = zext i16 %51 to i32
  %53 = icmp sgt i32 %48, %52
  br i1 %53, label %70, label %54

54:                                               ; preds = %44
  %55 = load ptr, ptr %4, align 8, !tbaa !76
  %56 = getelementptr inbounds i8, ptr %55, i64 6
  %57 = load i16, ptr %56, align 1, !tbaa !77
  %58 = zext i16 %57 to i32
  %59 = load ptr, ptr %4, align 8, !tbaa !76
  %60 = getelementptr inbounds i8, ptr %59, i64 10
  %61 = load i16, ptr %60, align 1, !tbaa !77
  %62 = zext i16 %61 to i32
  %63 = icmp sgt i32 %58, %62
  br i1 %63, label %70, label %64

64:                                               ; preds = %54
  %65 = load ptr, ptr %4, align 8, !tbaa !76
  %66 = getelementptr inbounds i8, ptr %65, i64 64
  %67 = load i8, ptr %66, align 1, !tbaa !77
  %68 = zext i8 %67 to i32
  %69 = icmp ne i32 %68, 0
  br i1 %69, label %70, label %71

70:                                               ; preds = %64, %54, %44, %38, %31, %25, %19, %13, %1
  store i32 0, ptr %2, align 4
  store i32 1, ptr %5, align 4
  br label %89

71:                                               ; preds = %64
  %72 = load ptr, ptr %4, align 8, !tbaa !76
  %73 = getelementptr inbounds i8, ptr %72, i64 73
  store ptr %73, ptr %4, align 8, !tbaa !76
  br label %74

74:                                               ; preds = %87, %71
  %75 = load ptr, ptr %4, align 8, !tbaa !76
  %76 = getelementptr inbounds nuw i8, ptr %75, i32 1
  store ptr %76, ptr %4, align 8, !tbaa !76
  %77 = load ptr, ptr %3, align 8, !tbaa !139
  %78 = getelementptr inbounds nuw %struct.AVProbeData, ptr %77, i32 0, i32 1
  %79 = load ptr, ptr %78, align 8, !tbaa !96
  %80 = getelementptr inbounds i8, ptr %79, i64 128
  %81 = icmp ult ptr %76, %80
  br i1 %81, label %82, label %88

82:                                               ; preds = %74
  %83 = load ptr, ptr %4, align 8, !tbaa !76
  %84 = load i8, ptr %83, align 1, !tbaa !77
  %85 = icmp ne i8 %84, 0
  br i1 %85, label %86, label %87

86:                                               ; preds = %82
  store i32 12, ptr %2, align 4
  store i32 1, ptr %5, align 4
  br label %89

87:                                               ; preds = %82
  br label %74, !llvm.loop !145

88:                                               ; preds = %74
  store i32 51, ptr %2, align 4
  store i32 1, ptr %5, align 4
  br label %89

89:                                               ; preds = %88, %86, %70
  call void @llvm.lifetime.end.p0(i64 8, ptr %4) #12
  %90 = load i32, ptr %2, align 4
  ret i32 %90
}