; Function Attrs: nofree norecurse nosync nounwind memory(read, inaccessiblemem: none) uwtable
define internal range(i32 0, 52) i32 @pcx_probe(ptr noundef readonly captures(none) %0) #10 {
  %2 = getelementptr inbounds nuw i8, ptr %0, i64 8
  %3 = load ptr, ptr %2, align 8, !tbaa !90
  %4 = getelementptr inbounds nuw i8, ptr %0, i64 16
  %5 = load i32, ptr %4, align 8, !tbaa !91
  %6 = icmp slt i32 %5, 128
  br i1 %6, label %.loopexit, label %7

7:                                                ; preds = %1
  %8 = load i8, ptr %3, align 1, !tbaa !68
  %.not = icmp eq i8 %8, 10
  br i1 %.not, label %9, label %.loopexit

9:                                                ; preds = %7
  %10 = getelementptr inbounds nuw i8, ptr %3, i64 1
  %11 = load i8, ptr %10, align 1, !tbaa !68
  %12 = icmp ugt i8 %11, 5
  br i1 %12, label %.loopexit, label %13

13:                                               ; preds = %9
  %14 = getelementptr inbounds nuw i8, ptr %3, i64 2
  %15 = load i8, ptr %14, align 1, !tbaa !68
  %16 = icmp ugt i8 %15, 1
  br i1 %16, label %.loopexit, label %17

17:                                               ; preds = %13
  %18 = getelementptr inbounds nuw i8, ptr %3, i64 3
  %19 = load i8, ptr %18, align 1, !tbaa !68
  %20 = zext i8 %19 to i32
  %21 = lshr i32 %20, 1
  %22 = and i32 %21, 85
  %23 = sub nsw i32 %20, %22
  %24 = and i32 %23, 858993459
  %25 = lshr i32 %23, 2
  %26 = and i32 %25, 858993459
  %27 = add nuw nsw i32 %26, %24
  %28 = lshr i32 %27, 4
  %29 = add nuw nsw i32 %28, %27
  %30 = and i32 %29, 252645135
  %31 = lshr i32 %30, 8
  %32 = add nuw nsw i32 %31, %30
  %33 = lshr i32 %32, 16
  %34 = add nuw nsw i32 %33, %32
  %35 = and i32 %34, 63
  %.not18 = icmp ne i32 %35, 1
  %36 = icmp ugt i8 %19, 8
  %or.cond = or i1 %36, %.not18
  br i1 %or.cond, label %.loopexit, label %37

37:                                               ; preds = %17
  %38 = getelementptr inbounds nuw i8, ptr %3, i64 4
  %39 = load i16, ptr %38, align 1, !tbaa !68
  %40 = getelementptr inbounds nuw i8, ptr %3, i64 8
  %41 = load i16, ptr %40, align 1, !tbaa !68
  %42 = icmp ugt i16 %39, %41
  br i1 %42, label %.loopexit, label %43

43:                                               ; preds = %37
  %44 = getelementptr inbounds nuw i8, ptr %3, i64 6
  %45 = load i16, ptr %44, align 1, !tbaa !68
  %46 = getelementptr inbounds nuw i8, ptr %3, i64 10
  %47 = load i16, ptr %46, align 1, !tbaa !68
  %48 = icmp ugt i16 %45, %47
  br i1 %48, label %.loopexit, label %49

49:                                               ; preds = %43
  %50 = getelementptr inbounds nuw i8, ptr %3, i64 64
  %51 = load i8, ptr %50, align 1, !tbaa !68
  %.not19 = icmp eq i8 %51, 0
  br i1 %.not19, label %.preheader, label %.loopexit

.preheader:                                       ; preds = %49, %52
  %.0.idx = phi i64 [ %.0.add, %52 ], [ 73, %49 ]
  %exitcond.not = icmp eq i64 %.0.idx, 127
  br i1 %exitcond.not, label %.loopexit, label %52

52:                                               ; preds = %.preheader
  %.0.add = add nuw nsw i64 %.0.idx, 1
  %.ptr = getelementptr inbounds nuw i8, ptr %3, i64 %.0.add
  %53 = load i8, ptr %.ptr, align 1, !tbaa !68
  %.not20 = icmp eq i8 %53, 0
  br i1 %.not20, label %.preheader, label %.loopexit, !llvm.loop !132

.loopexit:                                        ; preds = %.preheader, %52, %1, %7, %9, %13, %17, %37, %43, %49
  %.016 = phi i32 [ 0, %49 ], [ 0, %43 ], [ 0, %37 ], [ 0, %17 ], [ 0, %13 ], [ 0, %9 ], [ 0, %7 ], [ 0, %1 ], [ 51, %.preheader ], [ 12, %52 ]
  ret i32 %.016
}